target datalayout = "e-m:e-p270:32:32-p271:32:32-p272:64:64-i64:64-i128:128-f80:128-n8:16:32:64-S128"
target triple = "x86_64-pc-linux-gnu"

%struct.lua_State = type { %struct.GCRef, i8, i8, i8, i8, %struct.MRef, %struct.GCRef, ptr, ptr, %struct.MRef, %struct.MRef, %struct.GCRef, %struct.GCRef, ptr, i32 }
%struct.MRef = type { i64 }
%struct.GCRef = type { i64 }
%union.TValue = type { i64 }
%struct.GCfuncC = type { %struct.GCRef, i8, i8, i8, i8, %struct.GCRef, %struct.GCRef, %struct.MRef, ptr, [1 x %union.TValue] }
%struct.GCfuncL = type { %struct.GCRef, i8, i8, i8, i8, %struct.GCRef, %struct.GCRef, %struct.MRef, [1 x %struct.GCRef] }

; Function Attrs: nounwind uwtable
define hidden ptr @lj_lib_checkLproto(ptr noundef %0, i32 noundef %1, i32 noundef %2) #0 {
  %4 = alloca ptr, align 8
  %5 = alloca ptr, align 8
  %6 = alloca i32, align 4
  %7 = alloca i32, align 4
  %8 = alloca ptr, align 8
  %9 = alloca i32, align 4
  store ptr %0, ptr %5, align 8, !tbaa !4
  store i32 %1, ptr %6, align 4, !tbaa !24
  store i32 %2, ptr %7, align 4, !tbaa !24
  call void @llvm.lifetime.start.p0(i64 8, ptr %8) #9
  %10 = load ptr, ptr %5, align 8, !tbaa !4
  %11 = getelementptr inbounds nuw %struct.lua_State, ptr %10, i32 0, i32 7
  %12 = load ptr, ptr %11, align 8, !tbaa !29
  %13 = load i32, ptr %6, align 4, !tbaa !24
  %14 = sext i32 %13 to i64
  %15 = getelementptr inbounds %union.TValue, ptr %12, i64 %14
  %16 = getelementptr inbounds %union.TValue, ptr %15, i64 -1
  store ptr %16, ptr %8, align 8, !tbaa !48
  %17 = load ptr, ptr %5, align 8, !tbaa !4
  %18 = getelementptr inbounds nuw %struct.lua_State, ptr %17, i32 0, i32 8
  %19 = load ptr, ptr %18, align 8, !tbaa !28
  %20 = load ptr, ptr %8, align 8, !tbaa !48
  %21 = icmp ugt ptr %19, %20
  br i1 %21, label %22, label %69

22:                                               ; preds = %3
  %23 = load ptr, ptr %8, align 8, !tbaa !48
  %24 = load i64, ptr %23, align 8, !tbaa !23
  %25 = ashr i64 %24, 47
  %26 = trunc i64 %25 to i32
  %27 = icmp eq i32 %26, -8
  br i1 %27, label %28, label %34

28:                                               ; preds = %22
  %29 = load ptr, ptr %8, align 8, !tbaa !48
  %30 = getelementptr inbounds nuw %struct.GCRef, ptr %29, i32 0, i32 0
  %31 = load i64, ptr %30, align 8, !tbaa !23
  %32 = and i64 %31, 140737488355327
  %33 = inttoptr i64 %32 to ptr
  store ptr %33, ptr %4, align 8
  store i32 1, ptr %9, align 4
  br label %72

34:                                               ; preds = %22
  %35 = load ptr, ptr %8, align 8, !tbaa !48
  %36 = load i64, ptr %35, align 8, !tbaa !23
  %37 = ashr i64 %36, 47
  %38 = trunc i64 %37 to i32
  %39 = icmp eq i32 %38, -9
  br i1 %39, label %40, label %67

40:                                               ; preds = %34
  %41 = load ptr, ptr %8, align 8, !tbaa !48
  %42 = getelementptr inbounds nuw %struct.GCRef, ptr %41, i32 0, i32 0
  %43 = load i64, ptr %42, align 8, !tbaa !23
  %44 = and i64 %43, 140737488355327
  %45 = inttoptr i64 %44 to ptr
  %46 = getelementptr inbounds nuw %struct.GCfuncC, ptr %45, i32 0, i32 3
  %47 = load i8, ptr %46, align 2, !tbaa !23
  %48 = zext i8 %47 to i32
  %49 = icmp eq i32 %48, 0
  br i1 %49, label %50, label %61

50:                                               ; preds = %40
  %51 = load ptr, ptr %8, align 8, !tbaa !48
  %52 = getelementptr inbounds nuw %struct.GCRef, ptr %51, i32 0, i32 0
  %53 = load i64, ptr %52, align 8, !tbaa !23
  %54 = and i64 %53, 140737488355327
  %55 = inttoptr i64 %54 to ptr
  %56 = getelementptr inbounds nuw %struct.GCfuncL, ptr %55, i32 0, i32 7
  %57 = getelementptr inbounds nuw %struct.MRef, ptr %56, i32 0, i32 0
  %58 = load i64, ptr %57, align 8, !tbaa !23
  %59 = inttoptr i64 %58 to ptr
  %60 = getelementptr inbounds i8, ptr %59, i64 -104
  store ptr %60, ptr %4, align 8
  store i32 1, ptr %9, align 4
  br label %72

61:                                               ; preds = %40
  %62 = load i32, ptr %7, align 4, !tbaa !24
  %63 = icmp ne i32 %62, 0
  br i1 %63, label %64, label %65

64:                                               ; preds = %61
  store ptr null, ptr %4, align 8
  store i32 1, ptr %9, align 4
  br label %72

65:                                               ; preds = %61
  br label %66

66:                                               ; preds = %65
  br label %67

67:                                               ; preds = %66, %34
  br label %68

68:                                               ; preds = %67
  br label %69

69:                                               ; preds = %68, %3
  %70 = load ptr, ptr %5, align 8, !tbaa !4
  %71 = load i32, ptr %6, align 4, !tbaa !24
  call void @lj_err_argt(ptr noundef %70, i32 noundef %71, i32 noundef 6) #10
  unreachable

72:                                               ; preds = %64, %50, %28
  call void @llvm.lifetime.end.p0(i64 8, ptr %8) #9
  %73 = load ptr, ptr %4, align 8
  ret ptr %73
}