; Function Attrs: nounwind uwtable
define hidden ptr @lj_lib_checkLproto(ptr noundef %0, i32 noundef %1, i32 noundef %2) local_unnamed_addr #0 {
  %4 = getelementptr inbounds nuw i8, ptr %0, i64 32
  %5 = load ptr, ptr %4, align 8, !tbaa !17
  %6 = sext i32 %1 to i64
  %7 = getelementptr inbounds %union.TValue, ptr %5, i64 %6
  %8 = getelementptr inbounds i8, ptr %7, i64 -8
  %9 = getelementptr inbounds nuw i8, ptr %0, i64 40
  %10 = load ptr, ptr %9, align 8, !tbaa !16
  %11 = icmp ugt ptr %10, %8
  br i1 %11, label %12, label %30

12:                                               ; preds = %3
  %13 = load i64, ptr %8, align 8, !tbaa !14
  %14 = ashr i64 %13, 47
  switch i64 %14, label %30 [
    i64 -8, label %15
    i64 -9, label %18
  ]

15:                                               ; preds = %12
  %16 = and i64 %13, 140737488355327
  %17 = inttoptr i64 %16 to ptr
  br label %31

18:                                               ; preds = %12
  %19 = and i64 %13, 140737488355327
  %20 = inttoptr i64 %19 to ptr
  %21 = getelementptr inbounds nuw i8, ptr %20, i64 10
  %22 = load i8, ptr %21, align 2, !tbaa !14
  %23 = icmp eq i8 %22, 0
  br i1 %23, label %24, label %29

24:                                               ; preds = %18
  %25 = getelementptr inbounds nuw i8, ptr %20, i64 32
  %26 = load i64, ptr %25, align 8, !tbaa !14
  %27 = inttoptr i64 %26 to ptr
  %28 = getelementptr inbounds i8, ptr %27, i64 -104
  br label %31

29:                                               ; preds = %18
  %.not = icmp eq i32 %2, 0
  br i1 %.not, label %30, label %31

30:                                               ; preds = %12, %29, %3
  tail call void @lj_err_argt(ptr noundef nonnull %0, i32 noundef %1, i32 noundef 6) #9
  unreachable

31:                                               ; preds = %29, %24, %15
  %.0 = phi ptr [ %17, %15 ], [ %28, %24 ], [ null, %29 ]
  ret ptr %.0
}